; Function Attrs: mustprogress nofree nounwind willreturn memory(write, inaccessiblemem: readwrite) uwtable
define hidden range(i32 0, 2) i32 @CBB_init_fixed(ptr noundef writeonly captures(none) initializes((0, 32)) %0, ptr noundef %1, i64 noundef %2) local_unnamed_addr #6 {
  tail call void @llvm.memset.p0.i64(ptr noundef nonnull align 8 dereferenceable(32) %0, i8 0, i64 32, i1 false)
  %4 = tail call noalias dereferenceable_or_null(32) ptr @malloc(i64 noundef 32) #14
  %5 = icmp eq ptr %4, null
  br i1 %5, label %cbb_init.exit.thread, label %6

6:                                                ; preds = %3
  store ptr %1, ptr %4, align 8, !tbaa !6
  %7 = getelementptr inbounds nuw i8, ptr %4, i64 8
  store i64 0, ptr %7, align 8, !tbaa !13
  %8 = getelementptr inbounds nuw i8, ptr %4, i64 16
  store i64 %2, ptr %8, align 8, !tbaa !14
  %9 = getelementptr inbounds nuw i8, ptr %4, i64 24
  store ptr %4, ptr %0, align 8, !tbaa !16
  %10 = getelementptr inbounds nuw i8, ptr %0, i64 26
  store i8 1, ptr %10, align 2, !tbaa !20
  store i8 0, ptr %9, align 8, !tbaa !15
  br label %cbb_init.exit.thread

cbb_init.exit.thread:                             ; preds = %3, %6
  %.0 = phi i32 [ 1, %6 ], [ 0, %3 ]
  ret i32 %.0
}